; ModuleID = '12/26.c'
source_filename = "12/26.c"
target datalayout = "e-m:e-p270:32:32-p271:32:32-p272:64:64-i64:64-f80:128-n8:16:32:64-S128"
target triple = "x86_64-pc-linux-gnu"

@.str = private unnamed_addr constant [3 x i8] c"%f\00", align 1
@.str.1 = private unnamed_addr constant [4 x i8] c"%d\0A\00", align 1

; Function Attrs: noinline nounwind uwtable
define dso_local i32 @main() #0 {
  %1 = alloca i32, align 4
  %2 = alloca i32, align 4
  %3 = alloca i32, align 4
  %4 = alloca i32, align 4
  %5 = alloca i32, align 4
  %6 = alloca [20 x float], align 16
  store i32 0, i32* %1, align 4
  br label %7

7:                                                ; preds = %0, %76
  %8 = getelementptr inbounds [20 x float], [20 x float]* %6, i64 0, i64 0
  %9 = call i32 (i8*, ...) @__isoc99_scanf(i8* getelementptr inbounds ([3 x i8], [3 x i8]* @.str, i64 0, i64 0), float* %8)
  %10 = getelementptr inbounds [20 x float], [20 x float]* %6, i64 0, i64 0
  %11 = load float, float* %10, align 16
  %12 = fcmp oeq float %11, -1.000000e+00
  br i1 %12, label %13, label %14

13:                                               ; preds = %7
  br label %79

14:                                               ; preds = %7
  store i32 1, i32* %4, align 4
  br label %15

15:                                               ; preds = %14, %26
  %16 = load i32, i32* %4, align 4
  %17 = sext i32 %16 to i64
  %18 = getelementptr inbounds [20 x float], [20 x float]* %6, i64 0, i64 %17
  %19 = call i32 (i8*, ...) @__isoc99_scanf(i8* getelementptr inbounds ([3 x i8], [3 x i8]* @.str, i64 0, i64 0), float* %18)
  %20 = load i32, i32* %4, align 4
  %21 = sext i32 %20 to i64
  %22 = getelementptr inbounds [20 x float], [20 x float]* %6, i64 0, i64 %21
  %23 = load float, float* %22, align 4
  %24 = fcmp oeq float %23, 0.000000e+00
  br i1 %24, label %25, label %26

25:                                               ; preds = %15
  br label %29

26:                                               ; preds = %15
  %27 = load i32, i32* %4, align 4
  %28 = add nsw i32 %27, 1
  store i32 %28, i32* %4, align 4
  br label %15

29:                                               ; preds = %25
  store i32 0, i32* %5, align 4
  store i32 0, i32* %2, align 4
  br label %30

30:                                               ; preds = %73, %29
  %31 = load i32, i32* %2, align 4
  %32 = load i32, i32* %4, align 4
  %33 = icmp slt i32 %31, %32
  br i1 %33, label %34, label %76

34:                                               ; preds = %30
  %35 = load i32, i32* %2, align 4
  %36 = add nsw i32 %35, 1
  store i32 %36, i32* %3, align 4
  br label %37

37:                                               ; preds = %69, %34
  %38 = load i32, i32* %3, align 4
  %39 = load i32, i32* %4, align 4
  %40 = icmp slt i32 %38, %39
  br i1 %40, label %41, label %72

41:                                               ; preds = %37
  %42 = load i32, i32* %2, align 4
  %43 = sext i32 %42 to i64
  %44 = getelementptr inbounds [20 x float], [20 x float]* %6, i64 0, i64 %43
  %45 = load float, float* %44, align 4
  %46 = load i32, i32* %3, align 4
  %47 = sext i32 %46 to i64
  %48 = getelementptr inbounds [20 x float], [20 x float]* %6, i64 0, i64 %47
  %49 = load float, float* %48, align 4
  %50 = fdiv float %45, %49
  %51 = fpext float %50 to double
  %52 = fcmp oeq double %51, 2.000000e+00
  br i1 %52, label %65, label %53

53:                                               ; preds = %41
  %54 = load i32, i32* %3, align 4
  %55 = sext i32 %54 to i64
  %56 = getelementptr inbounds [20 x float], [20 x float]* %6, i64 0, i64 %55
  %57 = load float, float* %56, align 4
  %58 = load i32, i32* %2, align 4
  %59 = sext i32 %58 to i64
  %60 = getelementptr inbounds [20 x float], [20 x float]* %6, i64 0, i64 %59
  %61 = load float, float* %60, align 4
  %62 = fdiv float %57, %61
  %63 = fpext float %62 to double
  %64 = fcmp oeq double %63, 2.000000e+00
  br i1 %64, label %65, label %68

65:                                               ; preds = %53, %41
  %66 = load i32, i32* %5, align 4
  %67 = add nsw i32 %66, 1
  store i32 %67, i32* %5, align 4
  br label %68

68:                                               ; preds = %65, %53
  br label %69

69:                                               ; preds = %68
  %70 = load i32, i32* %3, align 4
  %71 = add nsw i32 %70, 1
  store i32 %71, i32* %3, align 4
  br label %37

72:                                               ; preds = %37
  br label %73

73:                                               ; preds = %72
  %74 = load i32, i32* %2, align 4
  %75 = add nsw i32 %74, 1
  store i32 %75, i32* %2, align 4
  br label %30

76:                                               ; preds = %30
  %77 = load i32, i32* %5, align 4
  %78 = call i32 (i8*, ...) @printf(i8* getelementptr inbounds ([4 x i8], [4 x i8]* @.str.1, i64 0, i64 0), i32 %77)
  br label %7

79:                                               ; preds = %13
  ret i32 0
}

declare dso_local i32 @__isoc99_scanf(i8*, ...) #1

declare dso_local i32 @printf(i8*, ...) #1


!llvm.module.flags = !{!0}
!llvm.ident = !{!1}

!0 = !{i32 1, !"wchar_size", i32 4}
!1 = !{!"clang version 10.0.0-4ubuntu1 "}
